	.file	"FunctionOverload.cpp"
	.section .rdata,"dr"
__ZStL19piecewise_construct:
	.space 1
.lcomm __ZStL8__ioinit,1,1
LC0:
	.ascii "Addition of two integers\12\0"
	.section	.text$_ZN4Demo8AdditionEii,"x"
	.linkonce discard
	.align 2
	.globl	__ZN4Demo8AdditionEii
	.def	__ZN4Demo8AdditionEii;	.scl	2;	.type	32;	.endef
__ZN4Demo8AdditionEii:
LFB1445:
	.cfi_startproc
	pushl	%ebp
	.cfi_def_cfa_offset 8
	.cfi_offset 5, -8
	movl	%esp, %ebp
	.cfi_def_cfa_register 5
	subl	$40, %esp
	movl	%ecx, -12(%ebp)
	movl	$LC0, 4(%esp)
	movl	$__ZSt4cout, (%esp)
	call	__ZStlsISt11char_traitsIcEERSt13basic_ostreamIcT_ES5_PKc
	movl	8(%ebp), %edx
	movl	12(%ebp), %eax
	addl	%edx, %eax
	leave
	.cfi_restore 5
	.cfi_def_cfa 4, 4
	ret	$8
	.cfi_endproc
LFE1445:
	.section .rdata,"dr"
LC1:
	.ascii "Addition of two floats\12\0"
	.section	.text$_ZN4Demo8AdditionEff,"x"
	.linkonce discard
	.align 2
	.globl	__ZN4Demo8AdditionEff
	.def	__ZN4Demo8AdditionEff;	.scl	2;	.type	32;	.endef
__ZN4Demo8AdditionEff:
LFB1447:
	.cfi_startproc
	pushl	%ebp
	.cfi_def_cfa_offset 8
	.cfi_offset 5, -8
	movl	%esp, %ebp
	.cfi_def_cfa_register 5
	subl	$40, %esp
	movl	%ecx, -12(%ebp)
	movl	$LC1, 4(%esp)
	movl	$__ZSt4cout, (%esp)
	call	__ZStlsISt11char_traitsIcEERSt13basic_ostreamIcT_ES5_PKc
	flds	8(%ebp)
	fadds	12(%ebp)
	leave
	.cfi_restore 5
	.cfi_def_cfa 4, 4
	ret	$8
	.cfi_endproc
LFE1447:
	.section .rdata,"dr"
LC3:
	.ascii "Addition of two doubles\12\0"
	.section	.text$_ZN4Demo8AdditionEdd,"x"
	.linkonce discard
	.align 2
	.globl	__ZN4Demo8AdditionEdd
	.def	__ZN4Demo8AdditionEdd;	.scl	2;	.type	32;	.endef
__ZN4Demo8AdditionEdd:
LFB1448:
	.cfi_startproc
	pushl	%ebp
	.cfi_def_cfa_offset 8
	.cfi_offset 5, -8
	movl	%esp, %ebp
	.cfi_def_cfa_register 5
	subl	$56, %esp
	movl	%ecx, -12(%ebp)
	movl	8(%ebp), %eax
	movl	%eax, -24(%ebp)
	movl	12(%ebp), %eax
	movl	%eax, -20(%ebp)
	movl	16(%ebp), %eax
	movl	%eax, -32(%ebp)
	movl	20(%ebp), %eax
	movl	%eax, -28(%ebp)
	movl	$LC3, 4(%esp)
	movl	$__ZSt4cout, (%esp)
	call	__ZStlsISt11char_traitsIcEERSt13basic_ostreamIcT_ES5_PKc
	fldl	-24(%ebp)
	faddl	-32(%ebp)
	leave
	.cfi_restore 5
	.cfi_def_cfa 4, 4
	ret	$16
	.cfi_endproc
LFE1448:
	.def	___main;	.scl	2;	.type	32;	.endef
	.section .rdata,"dr"
LC4:
	.ascii "Addition is \0"
LC5:
	.ascii "\12\0"
	.text
	.globl	_main
	.def	_main;	.scl	2;	.type	32;	.endef
_main:
LFB1449:
	.cfi_startproc
	leal	4(%esp), %ecx
	.cfi_def_cfa 1, 0
	andl	$-16, %esp
	pushl	-4(%ecx)
	pushl	%ebp
	.cfi_escape 0x10,0x5,0x2,0x75,0
	movl	%esp, %ebp
	pushl	%ecx
	.cfi_escape 0xf,0x3,0x75,0x7c,0x6
	subl	$68, %esp
	call	___main
	leal	-25(%ebp), %eax
	movl	$11, 4(%esp)
	movl	$1, (%esp)
	movl	%eax, %ecx
	call	__ZN4Demo8AdditionEii
	subl	$8, %esp
	movl	%eax, -12(%ebp)
	movl	$LC4, 4(%esp)
	movl	$__ZSt4cout, (%esp)
	call	__ZStlsISt11char_traitsIcEERSt13basic_ostreamIcT_ES5_PKc
	movl	%eax, %edx
	movl	-12(%ebp), %eax
	movl	%eax, (%esp)
	movl	%edx, %ecx
	call	__ZNSolsEi
	subl	$4, %esp
	movl	$LC5, 4(%esp)
	movl	%eax, (%esp)
	call	__ZStlsISt11char_traitsIcEERSt13basic_ostreamIcT_ES5_PKc
	leal	-25(%ebp), %eax
	flds	LC6
	fstps	4(%esp)
	flds	LC7
	fstps	(%esp)
	movl	%eax, %ecx
	call	__ZN4Demo8AdditionEff
	subl	$8, %esp
	fstps	-44(%ebp)
	movl	-44(%ebp), %eax
	movl	%eax, -16(%ebp)
	movl	$LC4, 4(%esp)
	movl	$__ZSt4cout, (%esp)
	call	__ZStlsISt11char_traitsIcEERSt13basic_ostreamIcT_ES5_PKc
	flds	-16(%ebp)
	fstps	(%esp)
	movl	%eax, %ecx
	call	__ZNSolsEf
	subl	$4, %esp
	movl	$LC5, 4(%esp)
	movl	%eax, (%esp)
	call	__ZStlsISt11char_traitsIcEERSt13basic_ostreamIcT_ES5_PKc
	leal	-25(%ebp), %eax
	fldl	LC8
	fstpl	8(%esp)
	fldl	LC9
	fstpl	(%esp)
	movl	%eax, %ecx
	call	__ZN4Demo8AdditionEdd
	subl	$16, %esp
	fstpl	-24(%ebp)
	movl	$LC4, 4(%esp)
	movl	$__ZSt4cout, (%esp)
	call	__ZStlsISt11char_traitsIcEERSt13basic_ostreamIcT_ES5_PKc
	fldl	-24(%ebp)
	fstpl	(%esp)
	movl	%eax, %ecx
	call	__ZNSolsEd
	subl	$8, %esp
	movl	$LC5, 4(%esp)
	movl	%eax, (%esp)
	call	__ZStlsISt11char_traitsIcEERSt13basic_ostreamIcT_ES5_PKc
	movl	$0, %eax
	movl	-4(%ebp), %ecx
	.cfi_def_cfa 1, 0
	leave
	.cfi_restore 5
	leal	-4(%ecx), %esp
	.cfi_def_cfa 4, 4
	ret
	.cfi_endproc
LFE1449:
	.def	___tcf_0;	.scl	3;	.type	32;	.endef
___tcf_0:
LFB1879:
	.cfi_startproc
	pushl	%ebp
	.cfi_def_cfa_offset 8
	.cfi_offset 5, -8
	movl	%esp, %ebp
	.cfi_def_cfa_register 5
	subl	$8, %esp
	movl	$__ZStL8__ioinit, %ecx
	call	__ZNSt8ios_base4InitD1Ev
	leave
	.cfi_restore 5
	.cfi_def_cfa 4, 4
	ret
	.cfi_endproc
LFE1879:
	.def	__Z41__static_initialization_and_destruction_0ii;	.scl	3;	.type	32;	.endef
__Z41__static_initialization_and_destruction_0ii:
LFB1878:
	.cfi_startproc
	pushl	%ebp
	.cfi_def_cfa_offset 8
	.cfi_offset 5, -8
	movl	%esp, %ebp
	.cfi_def_cfa_register 5
	subl	$24, %esp
	cmpl	$1, 8(%ebp)
	jne	L12
	cmpl	$65535, 12(%ebp)
	jne	L12
	movl	$__ZStL8__ioinit, %ecx
	call	__ZNSt8ios_base4InitC1Ev
	movl	$___tcf_0, (%esp)
	call	_atexit
L12:
	nop
	leave
	.cfi_restore 5
	.cfi_def_cfa 4, 4
	ret
	.cfi_endproc
LFE1878:
	.def	__GLOBAL__sub_I_main;	.scl	3;	.type	32;	.endef
__GLOBAL__sub_I_main:
LFB1880:
	.cfi_startproc
	pushl	%ebp
	.cfi_def_cfa_offset 8
	.cfi_offset 5, -8
	movl	%esp, %ebp
	.cfi_def_cfa_register 5
	subl	$24, %esp
	movl	$65535, 4(%esp)
	movl	$1, (%esp)
	call	__Z41__static_initialization_and_destruction_0ii
	leave
	.cfi_restore 5
	.cfi_def_cfa 4, 4
	ret
	.cfi_endproc
LFE1880:
	.section	.ctors,"w"
	.align 4
	.long	__GLOBAL__sub_I_main
	.section .rdata,"dr"
	.align 4
LC6:
	.long	1073741824
	.align 4
LC7:
	.long	1118896128
	.align 8
LC8:
	.long	377957122
	.long	1078374105
	.align 8
LC9:
	.long	137438953
	.long	1075977388
	.ident	"GCC: (MinGW.org GCC-6.3.0-1) 6.3.0"
	.def	__ZStlsISt11char_traitsIcEERSt13basic_ostreamIcT_ES5_PKc;	.scl	2;	.type	32;	.endef
	.def	__ZNSolsEi;	.scl	2;	.type	32;	.endef
	.def	__ZNSolsEf;	.scl	2;	.type	32;	.endef
	.def	__ZNSolsEd;	.scl	2;	.type	32;	.endef
	.def	__ZNSt8ios_base4InitD1Ev;	.scl	2;	.type	32;	.endef
	.def	__ZNSt8ios_base4InitC1Ev;	.scl	2;	.type	32;	.endef
	.def	_atexit;	.scl	2;	.type	32;	.endef
